; Function Attrs: nounwind uwtable
define internal ptr @itemgetter_vectorcall(ptr noundef readonly captures(none) %0, ptr noundef readonly captures(none) %1, i64 noundef %2, ptr noundef %3) #0 {
  %5 = icmp eq ptr %3, null
  br i1 %5, label %8, label %6

6:                                                ; preds = %4
  %7 = tail call i32 @_PyArg_NoKwnames(ptr noundef nonnull @.str.80, ptr noundef nonnull %3) #7
  %.not = icmp eq i32 %7, 0
  br i1 %.not, label %15, label %8

8:                                                ; preds = %6, %4
  %9 = and i64 %2, 9223372036854775807
  %or.cond = icmp eq i64 %9, 1
  br i1 %or.cond, label %12, label %10

10:                                               ; preds = %8
  %11 = tail call i32 @_PyArg_CheckPositional(ptr noundef nonnull @.str.80, i64 noundef %9, i64 noundef 1, i64 noundef 1) #7
  %.not10 = icmp eq i32 %11, 0
  br i1 %.not10, label %15, label %12

12:                                               ; preds = %8, %10
  %13 = load ptr, ptr %1, align 8, !tbaa !17
  %14 = tail call fastcc ptr @itemgetter_call_impl(ptr noundef %0, ptr noundef %13)
  br label %15

15:                                               ; preds = %12, %10, %6
  %.0 = phi ptr [ null, %6 ], [ %14, %12 ], [ null, %10 ]
  ret ptr %.0
}